target datalayout = "e-m:e-p270:32:32-p271:32:32-p272:64:64-i64:64-i128:128-f80:128-n8:16:32:64-S128"
target triple = "x86_64-pc-linux-gnu"

@.str.8 = private unnamed_addr constant [1 x i8] zeroinitializer, align 1

; Function Attrs: mustprogress nounwind uwtable
define internal noundef ptr @_ZN10duckdb_re212re2_internalL15TerminateNumberEPcmPKcPmb(ptr noundef %0, i64 noundef %1, ptr noundef %2, ptr noundef %3, i1 noundef zeroext %4) #0 {
  %6 = alloca ptr, align 8
  %7 = alloca ptr, align 8
  %8 = alloca i64, align 8
  %9 = alloca ptr, align 8
  %10 = alloca ptr, align 8
  %11 = alloca i8, align 1
  %12 = alloca i64, align 8
  %13 = alloca i32, align 4
  %14 = alloca i8, align 1
  store ptr %0, ptr %7, align 8, !tbaa !31
  store i64 %1, ptr %8, align 8, !tbaa !83
  store ptr %2, ptr %9, align 8, !tbaa !31
  store ptr %3, ptr %10, align 8, !tbaa !144
  %15 = zext i1 %4 to i8
  store i8 %15, ptr %11, align 1, !tbaa !59
  call void @llvm.lifetime.start.p0(i64 8, ptr %12) #20
  %16 = load ptr, ptr %10, align 8, !tbaa !144
  %17 = load i64, ptr %16, align 8, !tbaa !83
  store i64 %17, ptr %12, align 8, !tbaa !83
  %18 = load i64, ptr %12, align 8, !tbaa !83
  %19 = icmp eq i64 %18, 0
  br i1 %19, label %20, label %21

20:                                               ; preds = %5
  store ptr @.str.8, ptr %6, align 8
  store i32 1, ptr %13, align 4
  br label %130

21:                                               ; preds = %5
  %22 = load i64, ptr %12, align 8, !tbaa !83
  %23 = icmp ugt i64 %22, 0
  br i1 %23, label %24, label %52

24:                                               ; preds = %21
  %25 = load ptr, ptr %9, align 8, !tbaa !31
  %26 = load i8, ptr %25, align 1, !tbaa !149
  %27 = sext i8 %26 to i32
  %28 = call i32 @isspace(i32 noundef %27) #24
  %29 = icmp ne i32 %28, 0
  br i1 %29, label %30, label %52

30:                                               ; preds = %24
  %31 = load i8, ptr %11, align 1, !tbaa !59, !range !60, !noundef !61
  %32 = trunc i8 %31 to i1
  br i1 %32, label %34, label %33

33:                                               ; preds = %30
  store ptr @.str.8, ptr %6, align 8
  store i32 1, ptr %13, align 4
  br label %130

34:                                               ; preds = %30
  br label %35

35:                                               ; preds = %46, %34
  %36 = load i64, ptr %12, align 8, !tbaa !83
  %37 = icmp ugt i64 %36, 0
  br i1 %37, label %38, label %44

38:                                               ; preds = %35
  %39 = load ptr, ptr %9, align 8, !tbaa !31
  %40 = load i8, ptr %39, align 1, !tbaa !149
  %41 = sext i8 %40 to i32
  %42 = call i32 @isspace(i32 noundef %41) #24
  %43 = icmp ne i32 %42, 0
  br label %44

44:                                               ; preds = %38, %35
  %45 = phi i1 [ false, %35 ], [ %43, %38 ]
  br i1 %45, label %46, label %51

46:                                               ; preds = %44
  %47 = load i64, ptr %12, align 8, !tbaa !83
  %48 = add i64 %47, -1
  store i64 %48, ptr %12, align 8, !tbaa !83
  %49 = load ptr, ptr %9, align 8, !tbaa !31
  %50 = getelementptr inbounds nuw i8, ptr %49, i32 1
  store ptr %50, ptr %9, align 8, !tbaa !31
  br label %35, !llvm.loop !176

51:                                               ; preds = %44
  br label %52

52:                                               ; preds = %51, %24, %21
  call void @llvm.lifetime.start.p0(i64 1, ptr %14) #20
  store i8 0, ptr %14, align 1, !tbaa !59
  %53 = load i64, ptr %12, align 8, !tbaa !83
  %54 = icmp uge i64 %53, 1
  br i1 %54, label %55, label %66

55:                                               ; preds = %52
  %56 = load ptr, ptr %9, align 8, !tbaa !31
  %57 = getelementptr inbounds i8, ptr %56, i64 0
  %58 = load i8, ptr %57, align 1, !tbaa !149
  %59 = sext i8 %58 to i32
  %60 = icmp eq i32 %59, 45
  br i1 %60, label %61, label %66

61:                                               ; preds = %55
  store i8 1, ptr %14, align 1, !tbaa !59
  %62 = load i64, ptr %12, align 8, !tbaa !83
  %63 = add i64 %62, -1
  store i64 %63, ptr %12, align 8, !tbaa !83
  %64 = load ptr, ptr %9, align 8, !tbaa !31
  %65 = getelementptr inbounds nuw i8, ptr %64, i32 1
  store ptr %65, ptr %9, align 8, !tbaa !31
  br label %66

66:                                               ; preds = %61, %55, %52
  %67 = load i64, ptr %12, align 8, !tbaa !83
  %68 = icmp uge i64 %67, 3
  br i1 %68, label %69, label %99

69:                                               ; preds = %66
  %70 = load ptr, ptr %9, align 8, !tbaa !31
  %71 = getelementptr inbounds i8, ptr %70, i64 0
  %72 = load i8, ptr %71, align 1, !tbaa !149
  %73 = sext i8 %72 to i32
  %74 = icmp eq i32 %73, 48
  br i1 %74, label %75, label %99

75:                                               ; preds = %69
  %76 = load ptr, ptr %9, align 8, !tbaa !31
  %77 = getelementptr inbounds i8, ptr %76, i64 1
  %78 = load i8, ptr %77, align 1, !tbaa !149
  %79 = sext i8 %78 to i32
  %80 = icmp eq i32 %79, 48
  br i1 %80, label %81, label %99

81:                                               ; preds = %75
  br label %82

82:                                               ; preds = %93, %81
  %83 = load i64, ptr %12, align 8, !tbaa !83
  %84 = icmp uge i64 %83, 3
  br i1 %84, label %85, label %91

85:                                               ; preds = %82
  %86 = load ptr, ptr %9, align 8, !tbaa !31
  %87 = getelementptr inbounds i8, ptr %86, i64 2
  %88 = load i8, ptr %87, align 1, !tbaa !149
  %89 = sext i8 %88 to i32
  %90 = icmp eq i32 %89, 48
  br label %91

91:                                               ; preds = %85, %82
  %92 = phi i1 [ false, %82 ], [ %90, %85 ]
  br i1 %92, label %93, label %98

93:                                               ; preds = %91
  %94 = load i64, ptr %12, align 8, !tbaa !83
  %95 = add i64 %94, -1
  store i64 %95, ptr %12, align 8, !tbaa !83
  %96 = load ptr, ptr %9, align 8, !tbaa !31
  %97 = getelementptr inbounds nuw i8, ptr %96, i32 1
  store ptr %97, ptr %9, align 8, !tbaa !31
  br label %82, !llvm.loop !177

98:                                               ; preds = %91
  br label %99

99:                                               ; preds = %98, %75, %69, %66
  %100 = load i8, ptr %14, align 1, !tbaa !59, !range !60, !noundef !61
  %101 = trunc i8 %100 to i1
  br i1 %101, label %102, label %107

102:                                              ; preds = %99
  %103 = load i64, ptr %12, align 8, !tbaa !83
  %104 = add i64 %103, 1
  store i64 %104, ptr %12, align 8, !tbaa !83
  %105 = load ptr, ptr %9, align 8, !tbaa !31
  %106 = getelementptr inbounds i8, ptr %105, i32 -1
  store ptr %106, ptr %9, align 8, !tbaa !31
  br label %107

107:                                              ; preds = %102, %99
  %108 = load i64, ptr %12, align 8, !tbaa !83
  %109 = load i64, ptr %8, align 8, !tbaa !83
  %110 = sub i64 %109, 1
  %111 = icmp ugt i64 %108, %110
  br i1 %111, label %112, label %113

112:                                              ; preds = %107
  store ptr @.str.8, ptr %6, align 8
  store i32 1, ptr %13, align 4
  br label %129

113:                                              ; preds = %107
  %114 = load ptr, ptr %7, align 8, !tbaa !31
  %115 = load ptr, ptr %9, align 8, !tbaa !31
  %116 = load i64, ptr %12, align 8, !tbaa !83
  call void @llvm.memmove.p0.p0.i64(ptr align 1 %114, ptr align 1 %115, i64 %116, i1 false)
  %117 = load i8, ptr %14, align 1, !tbaa !59, !range !60, !noundef !61
  %118 = trunc i8 %117 to i1
  br i1 %118, label %119, label %122

119:                                              ; preds = %113
  %120 = load ptr, ptr %7, align 8, !tbaa !31
  %121 = getelementptr inbounds i8, ptr %120, i64 0
  store i8 45, ptr %121, align 1, !tbaa !149
  br label %122

122:                                              ; preds = %119, %113
  %123 = load ptr, ptr %7, align 8, !tbaa !31
  %124 = load i64, ptr %12, align 8, !tbaa !83
  %125 = getelementptr inbounds nuw i8, ptr %123, i64 %124
  store i8 0, ptr %125, align 1, !tbaa !149
  %126 = load i64, ptr %12, align 8, !tbaa !83
  %127 = load ptr, ptr %10, align 8, !tbaa !144
  store i64 %126, ptr %127, align 8, !tbaa !83
  %128 = load ptr, ptr %7, align 8, !tbaa !31
  store ptr %128, ptr %6, align 8
  store i32 1, ptr %13, align 4
  br label %129

129:                                              ; preds = %122, %112
  call void @llvm.lifetime.end.p0(i64 1, ptr %14) #20
  br label %130

130:                                              ; preds = %129, %33, %20
  call void @llvm.lifetime.end.p0(i64 8, ptr %12) #20
  %131 = load ptr, ptr %6, align 8
  ret ptr %131
}

; Function Attrs: mustprogress uwtable
define hidden noundef zeroext i1 @_ZN10duckdb_re212re2_internal5ParseIyEEbPKcmPT_i(ptr noundef %0, i64 noundef %1, ptr noundef %2, i32 noundef %3) #1 {
  %5 = alloca i1, align 1
  %6 = alloca ptr, align 8
  %7 = alloca i64, align 8
  %8 = alloca ptr, align 8
  %9 = alloca i32, align 4
  %10 = alloca [33 x i8], align 16
  %11 = alloca i32, align 4
  %12 = alloca ptr, align 8
  %13 = alloca i64, align 8
  store ptr %0, ptr %6, align 8, !tbaa !31
  store i64 %1, ptr %7, align 8, !tbaa !83
  store ptr %2, ptr %8, align 8, !tbaa !187
  store i32 %3, ptr %9, align 4, !tbaa !3
  %14 = load i64, ptr %7, align 8, !tbaa !83
  %15 = icmp eq i64 %14, 0
  br i1 %15, label %16, label %17

16:                                               ; preds = %4
  store i1 false, ptr %5, align 1
  br label %52

17:                                               ; preds = %4
  call void @llvm.lifetime.start.p0(i64 33, ptr %10) #20
  %18 = getelementptr inbounds [33 x i8], ptr %10, i64 0, i64 0
  %19 = load ptr, ptr %6, align 8, !tbaa !31
  %20 = call noundef ptr @_ZN10duckdb_re212re2_internalL15TerminateNumberEPcmPKcPmb(ptr noundef %18, i64 noundef 33, ptr noundef %19, ptr noundef %7, i1 noundef zeroext false)
  store ptr %20, ptr %6, align 8, !tbaa !31
  %21 = load ptr, ptr %6, align 8, !tbaa !31
  %22 = getelementptr inbounds i8, ptr %21, i64 0
  %23 = load i8, ptr %22, align 1, !tbaa !149
  %24 = sext i8 %23 to i32
  %25 = icmp eq i32 %24, 45
  br i1 %25, label %26, label %27

26:                                               ; preds = %17
  store i1 false, ptr %5, align 1
  store i32 1, ptr %11, align 4
  br label %51

27:                                               ; preds = %17
  call void @llvm.lifetime.start.p0(i64 8, ptr %12) #20
  %28 = call ptr @__errno_location() #26
  store i32 0, ptr %28, align 4, !tbaa !3
  call void @llvm.lifetime.start.p0(i64 8, ptr %13) #20
  %29 = load ptr, ptr %6, align 8, !tbaa !31
  %30 = load i32, ptr %9, align 4, !tbaa !3
  %31 = call i64 @strtoull(ptr noundef %29, ptr noundef %12, i32 noundef %30) #20
  store i64 %31, ptr %13, align 8, !tbaa !189
  %32 = load ptr, ptr %12, align 8, !tbaa !31
  %33 = load ptr, ptr %6, align 8, !tbaa !31
  %34 = load i64, ptr %7, align 8, !tbaa !83
  %35 = getelementptr inbounds nuw i8, ptr %33, i64 %34
  %36 = icmp ne ptr %32, %35
  br i1 %36, label %37, label %38

37:                                               ; preds = %27
  store i1 false, ptr %5, align 1
  store i32 1, ptr %11, align 4
  br label %50

38:                                               ; preds = %27
  %39 = call ptr @__errno_location() #26
  %40 = load i32, ptr %39, align 4, !tbaa !3
  %41 = icmp ne i32 %40, 0
  br i1 %41, label %42, label %43

42:                                               ; preds = %38
  store i1 false, ptr %5, align 1
  store i32 1, ptr %11, align 4
  br label %50

43:                                               ; preds = %38
  %44 = load ptr, ptr %8, align 8, !tbaa !187
  %45 = icmp eq ptr %44, null
  br i1 %45, label %46, label %47

46:                                               ; preds = %43
  store i1 true, ptr %5, align 1
  store i32 1, ptr %11, align 4
  br label %50

47:                                               ; preds = %43
  %48 = load i64, ptr %13, align 8, !tbaa !189
  %49 = load ptr, ptr %8, align 8, !tbaa !187
  store i64 %48, ptr %49, align 8, !tbaa !189
  store i1 true, ptr %5, align 1
  store i32 1, ptr %11, align 4
  br label %50

50:                                               ; preds = %47, %46, %42, %37
  call void @llvm.lifetime.end.p0(i64 8, ptr %13) #20
  call void @llvm.lifetime.end.p0(i64 8, ptr %12) #20
  br label %51

51:                                               ; preds = %50, %26
  call void @llvm.lifetime.end.p0(i64 33, ptr %10) #20
  br label %52

52:                                               ; preds = %51, %16
  %53 = load i1, ptr %5, align 1
  ret i1 %53
}